target datalayout = "e-m:e-p270:32:32-p271:32:32-p272:64:64-i64:64-i128:128-f80:128-n8:16:32:64-S128"
target triple = "x86_64-pc-linux-gnu"

%struct.PACKET = type { ptr, i64 }

; Function Attrs: inlinehint nounwind uwtable
define internal void @packet_forward(ptr noundef %0, i64 noundef %1) #3 {
  %3 = alloca ptr, align 8
  %4 = alloca i64, align 8
  store ptr %0, ptr %3, align 8, !tbaa !75
  store i64 %1, ptr %4, align 8, !tbaa !8
  %5 = load i64, ptr %4, align 8, !tbaa !8
  %6 = load ptr, ptr %3, align 8, !tbaa !75
  %7 = getelementptr inbounds nuw %struct.PACKET, ptr %6, i32 0, i32 0
  %8 = load ptr, ptr %7, align 8, !tbaa !80
  %9 = getelementptr inbounds nuw i8, ptr %8, i64 %5
  store ptr %9, ptr %7, align 8, !tbaa !80
  %10 = load i64, ptr %4, align 8, !tbaa !8
  %11 = load ptr, ptr %3, align 8, !tbaa !75
  %12 = getelementptr inbounds nuw %struct.PACKET, ptr %11, i32 0, i32 1
  %13 = load i64, ptr %12, align 8, !tbaa !85
  %14 = sub i64 %13, %10
  store i64 %14, ptr %12, align 8, !tbaa !85
  ret void
}

; Function Attrs: inlinehint nounwind uwtable
define internal i64 @ossl_quic_vlint_decode_len(i8 noundef zeroext %0) #3 {
  %2 = alloca i8, align 1
  store i8 %0, ptr %2, align 1, !tbaa !56
  %3 = load i8, ptr %2, align 1, !tbaa !56
  %4 = zext i8 %3 to i32
  %5 = and i32 %4, 192
  %6 = ashr i32 %5, 6
  %7 = shl i32 1, %6
  %8 = zext i32 %7 to i64
  ret i64 %8
}

; Function Attrs: inlinehint nounwind uwtable
define internal i64 @PACKET_remaining(ptr noundef %0) #3 {
  %2 = alloca ptr, align 8
  store ptr %0, ptr %2, align 8, !tbaa !75
  %3 = load ptr, ptr %2, align 8, !tbaa !75
  %4 = getelementptr inbounds nuw %struct.PACKET, ptr %3, i32 0, i32 1
  %5 = load i64, ptr %4, align 8, !tbaa !85
  ret i64 %5
}

; Function Attrs: inlinehint nounwind uwtable
define internal i32 @PACKET_get_quic_vlint(ptr noundef %0, ptr noundef %1) #3 {
  %3 = alloca i32, align 4
  %4 = alloca ptr, align 8
  %5 = alloca ptr, align 8
  %6 = alloca i64, align 8
  %7 = alloca i32, align 4
  store ptr %0, ptr %4, align 8, !tbaa !75
  store ptr %1, ptr %5, align 8, !tbaa !76
  call void @llvm.lifetime.start.p0(i64 8, ptr %6) #7
  %8 = load ptr, ptr %4, align 8, !tbaa !75
  %9 = call i64 @PACKET_remaining(ptr noundef %8)
  %10 = icmp ult i64 %9, 1
  br i1 %10, label %11, label %12

11:                                               ; preds = %2
  store i32 0, ptr %3, align 4
  store i32 1, ptr %7, align 4
  br label %31

12:                                               ; preds = %2
  %13 = load ptr, ptr %4, align 8, !tbaa !75
  %14 = getelementptr inbounds nuw %struct.PACKET, ptr %13, i32 0, i32 0
  %15 = load ptr, ptr %14, align 8, !tbaa !80
  %16 = load i8, ptr %15, align 1, !tbaa !56
  %17 = call i64 @ossl_quic_vlint_decode_len(i8 noundef zeroext %16)
  store i64 %17, ptr %6, align 8, !tbaa !8
  %18 = load ptr, ptr %4, align 8, !tbaa !75
  %19 = call i64 @PACKET_remaining(ptr noundef %18)
  %20 = load i64, ptr %6, align 8, !tbaa !8
  %21 = icmp ult i64 %19, %20
  br i1 %21, label %22, label %23

22:                                               ; preds = %12
  store i32 0, ptr %3, align 4
  store i32 1, ptr %7, align 4
  br label %31

23:                                               ; preds = %12
  %24 = load ptr, ptr %4, align 8, !tbaa !75
  %25 = getelementptr inbounds nuw %struct.PACKET, ptr %24, i32 0, i32 0
  %26 = load ptr, ptr %25, align 8, !tbaa !80
  %27 = call i64 @ossl_quic_vlint_decode_unchecked(ptr noundef %26)
  %28 = load ptr, ptr %5, align 8, !tbaa !76
  store i64 %27, ptr %28, align 8, !tbaa !8
  %29 = load ptr, ptr %4, align 8, !tbaa !75
  %30 = load i64, ptr %6, align 8, !tbaa !8
  call void @packet_forward(ptr noundef %29, i64 noundef %30)
  store i32 1, ptr %3, align 4
  store i32 1, ptr %7, align 4
  br label %31

31:                                               ; preds = %23, %22, %11
  call void @llvm.lifetime.end.p0(i64 8, ptr %6) #7
  %32 = load i32, ptr %3, align 4
  ret i32 %32
}